; Function Attrs: mustprogress nounwind uwtable
define dso_local void @_ZN4llvm4yaml6Output9scalarTagERNSt7__cxx1112basic_stringIcSt11char_traitsIcESaIcEEE(ptr noundef nonnull align 8 dereferenceable(128) %0, ptr noundef nonnull align 8 dereferenceable(32) %1) unnamed_addr #6 align 2 {
  %3 = tail call noundef zeroext i1 @_ZNKSt7__cxx1112basic_stringIcSt11char_traitsIcESaIcEE5emptyEv(ptr noundef nonnull align 8 dereferenceable(32) %1) #32
  br i1 %3, label %_ZN4llvm4yaml6Output6outputENS_9StringRefE.exit4, label %4

4:                                                ; preds = %2
  tail call void @_ZN4llvm4yaml6Output12newLineCheckEb(ptr noundef nonnull align 8 dereferenceable(128) %0, i1 noundef zeroext false)
  %5 = tail call noundef ptr @_ZNKSt7__cxx1112basic_stringIcSt11char_traitsIcESaIcEE4dataEv(ptr noundef nonnull align 8 dereferenceable(32) %1) #32
  %6 = tail call noundef i64 @_ZNKSt7__cxx1112basic_stringIcSt11char_traitsIcESaIcEE6lengthEv(ptr noundef nonnull align 8 dereferenceable(32) %1) #32
  %7 = getelementptr inbounds nuw i8, ptr %0, i64 80
  %8 = load i32, ptr %7, align 8
  %9 = trunc i64 %6 to i32
  %10 = add i32 %8, %9
  store i32 %10, ptr %7, align 8
  %11 = getelementptr inbounds nuw i8, ptr %0, i64 16
  %12 = load ptr, ptr %11, align 8
  %13 = getelementptr inbounds nuw i8, ptr %12, i64 24
  %14 = load ptr, ptr %13, align 8
  %15 = getelementptr inbounds nuw i8, ptr %12, i64 32
  %16 = load ptr, ptr %15, align 8
  %17 = ptrtoint ptr %14 to i64
  %18 = ptrtoint ptr %16 to i64
  %19 = sub i64 %17, %18
  %20 = icmp ugt i64 %6, %19
  br i1 %20, label %21, label %23

21:                                               ; preds = %4
  %22 = tail call noundef nonnull align 8 dereferenceable(48) ptr @_ZN4llvm11raw_ostream5writeEPKcm(ptr noundef nonnull align 8 dereferenceable(48) %12, ptr noundef %5, i64 noundef %6) #32
  br label %_ZN4llvm4yaml6Output6outputENS_9StringRefE.exit

23:                                               ; preds = %4
  %.not.i.i = icmp eq i64 %6, 0
  br i1 %.not.i.i, label %_ZN4llvm4yaml6Output6outputENS_9StringRefE.exit, label %24

24:                                               ; preds = %23
  tail call void @llvm.memcpy.p0.p0.i64(ptr align 1 %16, ptr align 1 %5, i64 %6, i1 false)
  %25 = load ptr, ptr %15, align 8
  %26 = getelementptr inbounds i8, ptr %25, i64 %6
  store ptr %26, ptr %15, align 8
  br label %_ZN4llvm4yaml6Output6outputENS_9StringRefE.exit

_ZN4llvm4yaml6Output6outputENS_9StringRefE.exit:  ; preds = %21, %23, %24
  %27 = load i32, ptr %7, align 8
  %28 = add i32 %27, 1
  store i32 %28, ptr %7, align 8
  %29 = load ptr, ptr %11, align 8
  %30 = getelementptr inbounds nuw i8, ptr %29, i64 24
  %31 = load ptr, ptr %30, align 8
  %32 = getelementptr inbounds nuw i8, ptr %29, i64 32
  %33 = load ptr, ptr %32, align 8
  %34 = icmp eq ptr %31, %33
  br i1 %34, label %35, label %37

35:                                               ; preds = %_ZN4llvm4yaml6Output6outputENS_9StringRefE.exit
  %36 = tail call noundef nonnull align 8 dereferenceable(48) ptr @_ZN4llvm11raw_ostream5writeEPKcm(ptr noundef nonnull align 8 dereferenceable(48) %29, ptr noundef nonnull @.str.15, i64 noundef 1) #32
  br label %_ZN4llvm4yaml6Output6outputENS_9StringRefE.exit4

37:                                               ; preds = %_ZN4llvm4yaml6Output6outputENS_9StringRefE.exit
  store i8 32, ptr %33, align 1
  %38 = load ptr, ptr %32, align 8
  %39 = getelementptr inbounds nuw i8, ptr %38, i64 1
  store ptr %39, ptr %32, align 8
  br label %_ZN4llvm4yaml6Output6outputENS_9StringRefE.exit4

_ZN4llvm4yaml6Output6outputENS_9StringRefE.exit4: ; preds = %37, %35, %2
  ret void
}